; Function Attrs: mustprogress uwtable
define void @_ZNK3gmx20AbstractAnalysisData12getDataFrameEi(ptr dead_on_unwind noalias writable sret(%"class.gmx::AnalysisDataFrameRef") align 8 %0, ptr noundef nonnull align 8 dereferenceable(16) %1, i32 noundef %2) local_unnamed_addr #1 align 2 personality ptr @__gxx_personality_v0 {
  %4 = alloca %"class.gmx::APIError", align 8
  %5 = alloca %"class.gmx::ExceptionInitializer", align 8
  %6 = alloca %"class.gmx::ExceptionInfo", align 8
  %7 = icmp slt i32 %2, 0
  br i1 %7, label %13, label %8

8:                                                ; preds = %3
  %9 = load ptr, ptr %1, align 8, !tbaa !14, !noalias !34
  %10 = getelementptr inbounds nuw i8, ptr %9, i64 16
  %11 = load ptr, ptr %10, align 8, !noalias !34
  %12 = tail call noundef i32 %11(ptr noundef nonnull align 8 dereferenceable(16) %1), !noalias !34
  %.not.i = icmp slt i32 %2, %12
  br i1 %.not.i, label %14, label %13

13:                                               ; preds = %8, %3
  tail call void @_ZN3gmx20AnalysisDataFrameRefC1Ev(ptr noundef nonnull align 8 dereferenceable(48) %0)
  br label %_ZNK3gmx20AbstractAnalysisData15tryGetDataFrameEi.exit

14:                                               ; preds = %8
  %15 = load ptr, ptr %1, align 8, !tbaa !14, !noalias !34
  %16 = getelementptr inbounds nuw i8, ptr %15, i64 24
  %17 = load ptr, ptr %16, align 8, !noalias !34
  tail call void %17(ptr dead_on_unwind writable sret(%"class.gmx::AnalysisDataFrameRef") align 8 %0, ptr noundef nonnull align 8 dereferenceable(16) %1, i32 noundef %2)
  br label %_ZNK3gmx20AbstractAnalysisData15tryGetDataFrameEi.exit

_ZNK3gmx20AbstractAnalysisData15tryGetDataFrameEi.exit: ; preds = %13, %14
  %18 = load i32, ptr %0, align 8, !tbaa !37
  %19 = icmp sgt i32 %18, -1
  br i1 %19, label %31, label %20

20:                                               ; preds = %_ZNK3gmx20AbstractAnalysisData15tryGetDataFrameEi.exit
  %21 = tail call ptr @__cxa_allocate_exception(i64 24) #27
  call void @llvm.lifetime.start.p0(i64 56, ptr nonnull %5) #27
  invoke void @_ZN3gmx20ExceptionInitializerC2EPKc(ptr noundef nonnull align 8 dereferenceable(56) %5, ptr noundef nonnull @.str.1)
          to label %22 unwind label %.thread

22:                                               ; preds = %20
  invoke void @_ZN3gmx16GromacsExceptionC2ERKNS_20ExceptionInitializerE(ptr noundef nonnull align 8 dereferenceable(24) %4, ptr noundef nonnull align 8 dereferenceable(56) %5)
          to label %23 unwind label %.thread14

23:                                               ; preds = %22
  store ptr getelementptr inbounds nuw inrange(-16, 32) (i8, ptr @_ZTVN3gmx8APIErrorE, i64 16), ptr %4, align 8, !tbaa !14
  call void @llvm.lifetime.start.p0(i64 32, ptr nonnull %6) #27
  store ptr getelementptr inbounds nuw inrange(-16, 16) (i8, ptr @_ZTVN3gmx13ExceptionInfoINS_22ExceptionInfoLocation_ENS_13ThrowLocationEEE, i64 16), ptr %6, align 8, !tbaa !14
  %24 = getelementptr inbounds nuw i8, ptr %6, i64 8
  store ptr @__PRETTY_FUNCTION__._ZNK3gmx20AbstractAnalysisData12getDataFrameEi, ptr %24, align 8, !tbaa !40
  %.sroa.4.0..sroa_idx = getelementptr inbounds nuw i8, ptr %6, i64 16
  store ptr @.str.2, ptr %.sroa.4.0..sroa_idx, align 8, !tbaa !40
  %.sroa.5.0..sroa_idx = getelementptr inbounds nuw i8, ptr %6, i64 24
  store i32 135, ptr %.sroa.5.0..sroa_idx, align 8, !tbaa !11
  invoke void @_ZN3gmxlsINS_8APIErrorENS_22ExceptionInfoLocation_ENS_13ThrowLocationEEENSt9enable_ifIXsr3stdE12is_base_of_vINS_16GromacsExceptionET_EES6_E4typeES6_RKNS_13ExceptionInfoIT0_T1_EE(ptr dead_on_unwind writable sret(%"class.gmx::APIError") align 8 %21, ptr noundef nonnull %4, ptr noundef nonnull align 8 dereferenceable(32) %6)
          to label %25 unwind label %28

25:                                               ; preds = %23
  invoke void @__cxa_throw(ptr %21, ptr nonnull @_ZTIN3gmx8APIErrorE, ptr nonnull @_ZN3gmx16GromacsExceptionD2Ev) #24
          to label %33 unwind label %28

.thread:                                          ; preds = %20
  %26 = landingpad { ptr, i32 }
          cleanup
  br label %.sink.split

.thread14:                                        ; preds = %22
  %27 = landingpad { ptr, i32 }
          cleanup
  call void @_ZN3gmx20ExceptionInitializerD2Ev(ptr noundef nonnull align 8 dereferenceable(56) %5) #27
  br label %.sink.split

28:                                               ; preds = %23, %25
  %.0 = phi i1 [ false, %25 ], [ true, %23 ]
  %29 = landingpad { ptr, i32 }
          cleanup
  call void @_ZN3gmx8internal14IExceptionInfoD2Ev(ptr noundef nonnull align 8 dereferenceable(32) %6) #27
  call void @llvm.lifetime.end.p0(i64 32, ptr nonnull %6) #27
  call void @_ZN3gmx16GromacsExceptionD2Ev(ptr noundef nonnull align 8 dereferenceable(24) %4) #27
  call void @_ZN3gmx20ExceptionInitializerD2Ev(ptr noundef nonnull align 8 dereferenceable(56) %5) #27
  call void @llvm.lifetime.end.p0(i64 56, ptr nonnull %5) #27
  br i1 %.0, label %30, label %32

.sink.split:                                      ; preds = %.thread, %.thread14
  %.pn.pn13.ph = phi { ptr, i32 } [ %27, %.thread14 ], [ %26, %.thread ]
  call void @llvm.lifetime.end.p0(i64 56, ptr nonnull %5) #27
  br label %30

30:                                               ; preds = %.sink.split, %28
  %.pn.pn13 = phi { ptr, i32 } [ %29, %28 ], [ %.pn.pn13.ph, %.sink.split ]
  call void @__cxa_free_exception(ptr %21) #27
  br label %32

31:                                               ; preds = %_ZNK3gmx20AbstractAnalysisData15tryGetDataFrameEi.exit
  ret void

32:                                               ; preds = %28, %30
  %.pn.pn12 = phi { ptr, i32 } [ %29, %28 ], [ %.pn.pn13, %30 ]
  resume { ptr, i32 } %.pn.pn12

33:                                               ; preds = %25
  unreachable
}